target datalayout = "e-m:e-p270:32:32-p271:32:32-p272:64:64-i64:64-i128:128-f80:128-n8:16:32:64-S128"
target triple = "x86_64-pc-linux-gnu"

%"class.Yosys::hashlib::pool" = type <{ %"class.std::vector.3", %"class.std::vector.8", [8 x i8] }>
%"class.std::vector.3" = type { %"struct.std::_Vector_base.4" }
%"struct.std::_Vector_base.4" = type { %"struct.std::_Vector_base<int, std::allocator<int>>::_Vector_impl" }
%"struct.std::_Vector_base<int, std::allocator<int>>::_Vector_impl" = type { %"struct.std::_Vector_base<int, std::allocator<int>>::_Vector_impl_data" }
%"struct.std::_Vector_base<int, std::allocator<int>>::_Vector_impl_data" = type { ptr, ptr, ptr }
%"class.std::vector.8" = type { %"struct.std::_Vector_base.9" }
%"struct.std::_Vector_base.9" = type { %"struct.std::_Vector_base<Yosys::hashlib::pool<Yosys::RTLIL::Monitor *>::entry_t, std::allocator<Yosys::hashlib::pool<Yosys::RTLIL::Monitor *>::entry_t>>::_Vector_impl" }
%"struct.std::_Vector_base<Yosys::hashlib::pool<Yosys::RTLIL::Monitor *>::entry_t, std::allocator<Yosys::hashlib::pool<Yosys::RTLIL::Monitor *>::entry_t>>::_Vector_impl" = type { %"struct.std::_Vector_base<Yosys::hashlib::pool<Yosys::RTLIL::Monitor *>::entry_t, std::allocator<Yosys::hashlib::pool<Yosys::RTLIL::Monitor *>::entry_t>>::_Vector_impl_data" }
%"struct.std::_Vector_base<Yosys::hashlib::pool<Yosys::RTLIL::Monitor *>::entry_t, std::allocator<Yosys::hashlib::pool<Yosys::RTLIL::Monitor *>::entry_t>>::_Vector_impl_data" = type { ptr, ptr, ptr }
%"class.std::vector.25" = type { %"struct.std::_Vector_base.26" }
%"struct.std::_Vector_base.26" = type { %"struct.std::_Vector_base<Yosys::RTLIL::Binding *, std::allocator<Yosys::RTLIL::Binding *>>::_Vector_impl" }
%"struct.std::_Vector_base<Yosys::RTLIL::Binding *, std::allocator<Yosys::RTLIL::Binding *>>::_Vector_impl" = type { %"struct.std::_Vector_base<Yosys::RTLIL::Binding *, std::allocator<Yosys::RTLIL::Binding *>>::_Vector_impl_data" }
%"struct.std::_Vector_base<Yosys::RTLIL::Binding *, std::allocator<Yosys::RTLIL::Binding *>>::_Vector_impl_data" = type { ptr, ptr, ptr }
%"struct.Yosys::RTLIL::Cell" = type { %"struct.Yosys::RTLIL::AttrObject", i32, ptr, %"struct.Yosys::RTLIL::IdString", %"struct.Yosys::RTLIL::IdString", %"class.Yosys::hashlib::dict.108", %"class.Yosys::hashlib::dict.49" }
%"struct.Yosys::RTLIL::AttrObject" = type { %"class.Yosys::hashlib::dict.49" }
%"struct.Yosys::RTLIL::IdString" = type { i32 }
%"class.Yosys::hashlib::dict.108" = type <{ %"class.std::vector.3", %"class.std::vector.109", [8 x i8] }>
%"class.std::vector.109" = type { %"struct.std::_Vector_base.110" }
%"struct.std::_Vector_base.110" = type { %"struct.std::_Vector_base<Yosys::hashlib::dict<Yosys::RTLIL::IdString, Yosys::RTLIL::SigSpec>::entry_t, std::allocator<Yosys::hashlib::dict<Yosys::RTLIL::IdString, Yosys::RTLIL::SigSpec>::entry_t>>::_Vector_impl" }
%"struct.std::_Vector_base<Yosys::hashlib::dict<Yosys::RTLIL::IdString, Yosys::RTLIL::SigSpec>::entry_t, std::allocator<Yosys::hashlib::dict<Yosys::RTLIL::IdString, Yosys::RTLIL::SigSpec>::entry_t>>::_Vector_impl" = type { %"struct.std::_Vector_base<Yosys::hashlib::dict<Yosys::RTLIL::IdString, Yosys::RTLIL::SigSpec>::entry_t, std::allocator<Yosys::hashlib::dict<Yosys::RTLIL::IdString, Yosys::RTLIL::SigSpec>::entry_t>>::_Vector_impl_data" }
%"struct.std::_Vector_base<Yosys::hashlib::dict<Yosys::RTLIL::IdString, Yosys::RTLIL::SigSpec>::entry_t, std::allocator<Yosys::hashlib::dict<Yosys::RTLIL::IdString, Yosys::RTLIL::SigSpec>::entry_t>>::_Vector_impl_data" = type { ptr, ptr, ptr }
%"class.Yosys::hashlib::dict.49" = type <{ %"class.std::vector.3", %"class.std::vector.50", [8 x i8] }>
%"class.std::vector.50" = type { %"struct.std::_Vector_base.51" }
%"struct.std::_Vector_base.51" = type { %"struct.std::_Vector_base<Yosys::hashlib::dict<Yosys::RTLIL::IdString, Yosys::RTLIL::Const>::entry_t, std::allocator<Yosys::hashlib::dict<Yosys::RTLIL::IdString, Yosys::RTLIL::Const>::entry_t>>::_Vector_impl" }
%"struct.std::_Vector_base<Yosys::hashlib::dict<Yosys::RTLIL::IdString, Yosys::RTLIL::Const>::entry_t, std::allocator<Yosys::hashlib::dict<Yosys::RTLIL::IdString, Yosys::RTLIL::Const>::entry_t>>::_Vector_impl" = type { %"struct.std::_Vector_base<Yosys::hashlib::dict<Yosys::RTLIL::IdString, Yosys::RTLIL::Const>::entry_t, std::allocator<Yosys::hashlib::dict<Yosys::RTLIL::IdString, Yosys::RTLIL::Const>::entry_t>>::_Vector_impl_data" }
%"struct.std::_Vector_base<Yosys::hashlib::dict<Yosys::RTLIL::IdString, Yosys::RTLIL::Const>::entry_t, std::allocator<Yosys::hashlib::dict<Yosys::RTLIL::IdString, Yosys::RTLIL::Const>::entry_t>>::_Vector_impl_data" = type { ptr, ptr, ptr }
%"struct.Yosys::RTLIL::Module" = type { ptr, %"struct.Yosys::RTLIL::AttrObject", i32, ptr, %"class.Yosys::hashlib::pool", i32, i32, %"class.Yosys::hashlib::dict.56", %"class.Yosys::hashlib::dict.63", %"class.std::vector.70", %"class.std::vector.25", %"struct.Yosys::RTLIL::IdString", [4 x i8], %"class.Yosys::hashlib::idict", %"class.Yosys::hashlib::dict.49", %"class.Yosys::hashlib::dict.82", %"class.Yosys::hashlib::dict.89", %"class.std::vector.96", %"class.Yosys::hashlib::pool.101" }
%"class.Yosys::hashlib::dict.56" = type <{ %"class.std::vector.3", %"class.std::vector.57", [8 x i8] }>
%"class.std::vector.57" = type { %"struct.std::_Vector_base.58" }
%"struct.std::_Vector_base.58" = type { %"struct.std::_Vector_base<Yosys::hashlib::dict<Yosys::RTLIL::IdString, Yosys::RTLIL::Wire *>::entry_t, std::allocator<Yosys::hashlib::dict<Yosys::RTLIL::IdString, Yosys::RTLIL::Wire *>::entry_t>>::_Vector_impl" }
%"struct.std::_Vector_base<Yosys::hashlib::dict<Yosys::RTLIL::IdString, Yosys::RTLIL::Wire *>::entry_t, std::allocator<Yosys::hashlib::dict<Yosys::RTLIL::IdString, Yosys::RTLIL::Wire *>::entry_t>>::_Vector_impl" = type { %"struct.std::_Vector_base<Yosys::hashlib::dict<Yosys::RTLIL::IdString, Yosys::RTLIL::Wire *>::entry_t, std::allocator<Yosys::hashlib::dict<Yosys::RTLIL::IdString, Yosys::RTLIL::Wire *>::entry_t>>::_Vector_impl_data" }
%"struct.std::_Vector_base<Yosys::hashlib::dict<Yosys::RTLIL::IdString, Yosys::RTLIL::Wire *>::entry_t, std::allocator<Yosys::hashlib::dict<Yosys::RTLIL::IdString, Yosys::RTLIL::Wire *>::entry_t>>::_Vector_impl_data" = type { ptr, ptr, ptr }
%"class.Yosys::hashlib::dict.63" = type <{ %"class.std::vector.3", %"class.std::vector.64", [8 x i8] }>
%"class.std::vector.64" = type { %"struct.std::_Vector_base.65" }
%"struct.std::_Vector_base.65" = type { %"struct.std::_Vector_base<Yosys::hashlib::dict<Yosys::RTLIL::IdString, Yosys::RTLIL::Cell *>::entry_t, std::allocator<Yosys::hashlib::dict<Yosys::RTLIL::IdString, Yosys::RTLIL::Cell *>::entry_t>>::_Vector_impl" }
%"struct.std::_Vector_base<Yosys::hashlib::dict<Yosys::RTLIL::IdString, Yosys::RTLIL::Cell *>::entry_t, std::allocator<Yosys::hashlib::dict<Yosys::RTLIL::IdString, Yosys::RTLIL::Cell *>::entry_t>>::_Vector_impl" = type { %"struct.std::_Vector_base<Yosys::hashlib::dict<Yosys::RTLIL::IdString, Yosys::RTLIL::Cell *>::entry_t, std::allocator<Yosys::hashlib::dict<Yosys::RTLIL::IdString, Yosys::RTLIL::Cell *>::entry_t>>::_Vector_impl_data" }
%"struct.std::_Vector_base<Yosys::hashlib::dict<Yosys::RTLIL::IdString, Yosys::RTLIL::Cell *>::entry_t, std::allocator<Yosys::hashlib::dict<Yosys::RTLIL::IdString, Yosys::RTLIL::Cell *>::entry_t>>::_Vector_impl_data" = type { ptr, ptr, ptr }
%"class.std::vector.70" = type { %"struct.std::_Vector_base.71" }
%"struct.std::_Vector_base.71" = type { %"struct.std::_Vector_base<std::pair<Yosys::RTLIL::SigSpec, Yosys::RTLIL::SigSpec>, std::allocator<std::pair<Yosys::RTLIL::SigSpec, Yosys::RTLIL::SigSpec>>>::_Vector_impl" }
%"struct.std::_Vector_base<std::pair<Yosys::RTLIL::SigSpec, Yosys::RTLIL::SigSpec>, std::allocator<std::pair<Yosys::RTLIL::SigSpec, Yosys::RTLIL::SigSpec>>>::_Vector_impl" = type { %"struct.std::_Vector_base<std::pair<Yosys::RTLIL::SigSpec, Yosys::RTLIL::SigSpec>, std::allocator<std::pair<Yosys::RTLIL::SigSpec, Yosys::RTLIL::SigSpec>>>::_Vector_impl_data" }
%"struct.std::_Vector_base<std::pair<Yosys::RTLIL::SigSpec, Yosys::RTLIL::SigSpec>, std::allocator<std::pair<Yosys::RTLIL::SigSpec, Yosys::RTLIL::SigSpec>>>::_Vector_impl_data" = type { ptr, ptr, ptr }
%"class.Yosys::hashlib::idict" = type { %"class.Yosys::hashlib::pool.75" }
%"class.Yosys::hashlib::pool.75" = type <{ %"class.std::vector.3", %"class.std::vector.76", [8 x i8] }>
%"class.std::vector.76" = type { %"struct.std::_Vector_base.77" }
%"struct.std::_Vector_base.77" = type { %"struct.std::_Vector_base<Yosys::hashlib::pool<Yosys::RTLIL::IdString>::entry_t, std::allocator<Yosys::hashlib::pool<Yosys::RTLIL::IdString>::entry_t>>::_Vector_impl" }
%"struct.std::_Vector_base<Yosys::hashlib::pool<Yosys::RTLIL::IdString>::entry_t, std::allocator<Yosys::hashlib::pool<Yosys::RTLIL::IdString>::entry_t>>::_Vector_impl" = type { %"struct.std::_Vector_base<Yosys::hashlib::pool<Yosys::RTLIL::IdString>::entry_t, std::allocator<Yosys::hashlib::pool<Yosys::RTLIL::IdString>::entry_t>>::_Vector_impl_data" }
%"struct.std::_Vector_base<Yosys::hashlib::pool<Yosys::RTLIL::IdString>::entry_t, std::allocator<Yosys::hashlib::pool<Yosys::RTLIL::IdString>::entry_t>>::_Vector_impl_data" = type { ptr, ptr, ptr }
%"class.Yosys::hashlib::dict.82" = type <{ %"class.std::vector.3", %"class.std::vector.83", [8 x i8] }>
%"class.std::vector.83" = type { %"struct.std::_Vector_base.84" }
%"struct.std::_Vector_base.84" = type { %"struct.std::_Vector_base<Yosys::hashlib::dict<Yosys::RTLIL::IdString, Yosys::RTLIL::Memory *>::entry_t, std::allocator<Yosys::hashlib::dict<Yosys::RTLIL::IdString, Yosys::RTLIL::Memory *>::entry_t>>::_Vector_impl" }
%"struct.std::_Vector_base<Yosys::hashlib::dict<Yosys::RTLIL::IdString, Yosys::RTLIL::Memory *>::entry_t, std::allocator<Yosys::hashlib::dict<Yosys::RTLIL::IdString, Yosys::RTLIL::Memory *>::entry_t>>::_Vector_impl" = type { %"struct.std::_Vector_base<Yosys::hashlib::dict<Yosys::RTLIL::IdString, Yosys::RTLIL::Memory *>::entry_t, std::allocator<Yosys::hashlib::dict<Yosys::RTLIL::IdString, Yosys::RTLIL::Memory *>::entry_t>>::_Vector_impl_data" }
%"struct.std::_Vector_base<Yosys::hashlib::dict<Yosys::RTLIL::IdString, Yosys::RTLIL::Memory *>::entry_t, std::allocator<Yosys::hashlib::dict<Yosys::RTLIL::IdString, Yosys::RTLIL::Memory *>::entry_t>>::_Vector_impl_data" = type { ptr, ptr, ptr }
%"class.Yosys::hashlib::dict.89" = type <{ %"class.std::vector.3", %"class.std::vector.90", [8 x i8] }>
%"class.std::vector.90" = type { %"struct.std::_Vector_base.91" }
%"struct.std::_Vector_base.91" = type { %"struct.std::_Vector_base<Yosys::hashlib::dict<Yosys::RTLIL::IdString, Yosys::RTLIL::Process *>::entry_t, std::allocator<Yosys::hashlib::dict<Yosys::RTLIL::IdString, Yosys::RTLIL::Process *>::entry_t>>::_Vector_impl" }
%"struct.std::_Vector_base<Yosys::hashlib::dict<Yosys::RTLIL::IdString, Yosys::RTLIL::Process *>::entry_t, std::allocator<Yosys::hashlib::dict<Yosys::RTLIL::IdString, Yosys::RTLIL::Process *>::entry_t>>::_Vector_impl" = type { %"struct.std::_Vector_base<Yosys::hashlib::dict<Yosys::RTLIL::IdString, Yosys::RTLIL::Process *>::entry_t, std::allocator<Yosys::hashlib::dict<Yosys::RTLIL::IdString, Yosys::RTLIL::Process *>::entry_t>>::_Vector_impl_data" }
%"struct.std::_Vector_base<Yosys::hashlib::dict<Yosys::RTLIL::IdString, Yosys::RTLIL::Process *>::entry_t, std::allocator<Yosys::hashlib::dict<Yosys::RTLIL::IdString, Yosys::RTLIL::Process *>::entry_t>>::_Vector_impl_data" = type { ptr, ptr, ptr }
%"class.std::vector.96" = type { %"struct.std::_Vector_base.97" }
%"struct.std::_Vector_base.97" = type { %"struct.std::_Vector_base<Yosys::RTLIL::IdString, std::allocator<Yosys::RTLIL::IdString>>::_Vector_impl" }
%"struct.std::_Vector_base<Yosys::RTLIL::IdString, std::allocator<Yosys::RTLIL::IdString>>::_Vector_impl" = type { %"struct.std::_Vector_base<Yosys::RTLIL::IdString, std::allocator<Yosys::RTLIL::IdString>>::_Vector_impl_data" }
%"struct.std::_Vector_base<Yosys::RTLIL::IdString, std::allocator<Yosys::RTLIL::IdString>>::_Vector_impl_data" = type { ptr, ptr, ptr }
%"class.Yosys::hashlib::pool.101" = type <{ %"class.std::vector.3", %"class.std::vector.102", [8 x i8] }>
%"class.std::vector.102" = type { %"struct.std::_Vector_base.103" }
%"struct.std::_Vector_base.103" = type { %"struct.std::_Vector_base<Yosys::hashlib::pool<std::pair<Yosys::RTLIL::Cell *, Yosys::RTLIL::IdString>>::entry_t, std::allocator<Yosys::hashlib::pool<std::pair<Yosys::RTLIL::Cell *, Yosys::RTLIL::IdString>>::entry_t>>::_Vector_impl" }
%"struct.std::_Vector_base<Yosys::hashlib::pool<std::pair<Yosys::RTLIL::Cell *, Yosys::RTLIL::IdString>>::entry_t, std::allocator<Yosys::hashlib::pool<std::pair<Yosys::RTLIL::Cell *, Yosys::RTLIL::IdString>>::entry_t>>::_Vector_impl" = type { %"struct.std::_Vector_base<Yosys::hashlib::pool<std::pair<Yosys::RTLIL::Cell *, Yosys::RTLIL::IdString>>::entry_t, std::allocator<Yosys::hashlib::pool<std::pair<Yosys::RTLIL::Cell *, Yosys::RTLIL::IdString>>::entry_t>>::_Vector_impl_data" }
%"struct.std::_Vector_base<Yosys::hashlib::pool<std::pair<Yosys::RTLIL::Cell *, Yosys::RTLIL::IdString>>::entry_t, std::allocator<Yosys::hashlib::pool<std::pair<Yosys::RTLIL::Cell *, Yosys::RTLIL::IdString>>::entry_t>>::_Vector_impl_data" = type { ptr, ptr, ptr }

@.str.11 = private unnamed_addr constant [47 x i8] c"#TRACE# Cell connect: %s.%s.%s = %s (was: %s)\0A\00", align 1

; Function Attrs: inlinehint mustprogress uwtable
define internal noundef ptr @_ZN5YosysL6log_idINS_5RTLIL4CellEEEPKcPT_S4_(ptr noundef %0, ptr noundef %1) #9 {
  %3 = alloca ptr, align 8
  %4 = alloca ptr, align 8
  %5 = alloca ptr, align 8
  store ptr %0, ptr %4, align 8, !tbaa !76
  store ptr %1, ptr %5, align 8, !tbaa !19
  %6 = load ptr, ptr %5, align 8, !tbaa !19
  %7 = icmp ne ptr %6, null
  br i1 %7, label %8, label %13

8:                                                ; preds = %2
  %9 = load ptr, ptr %4, align 8, !tbaa !76
  %10 = icmp eq ptr %9, null
  br i1 %10, label %11, label %13

11:                                               ; preds = %8
  %12 = load ptr, ptr %5, align 8, !tbaa !19
  store ptr %12, ptr %3, align 8
  br label %17

13:                                               ; preds = %8, %2
  %14 = load ptr, ptr %4, align 8, !tbaa !76
  %15 = getelementptr inbounds nuw %"struct.Yosys::RTLIL::Cell", ptr %14, i32 0, i32 3
  %16 = call noundef ptr @_ZN5Yosys6log_idERKNS_5RTLIL8IdStringE(ptr noundef nonnull align 4 dereferenceable(4) %15)
  store ptr %16, ptr %3, align 8
  br label %17

17:                                               ; preds = %13, %11
  %18 = load ptr, ptr %3, align 8
  ret ptr %18
}

; Function Attrs: inlinehint mustprogress uwtable
define internal noundef ptr @_ZN5YosysL6log_idINS_5RTLIL6ModuleEEEPKcPT_S4_(ptr noundef %0, ptr noundef %1) #9 {
  %3 = alloca ptr, align 8
  %4 = alloca ptr, align 8
  %5 = alloca ptr, align 8
  store ptr %0, ptr %4, align 8, !tbaa !74
  store ptr %1, ptr %5, align 8, !tbaa !19
  %6 = load ptr, ptr %5, align 8, !tbaa !19
  %7 = icmp ne ptr %6, null
  br i1 %7, label %8, label %13

8:                                                ; preds = %2
  %9 = load ptr, ptr %4, align 8, !tbaa !74
  %10 = icmp eq ptr %9, null
  br i1 %10, label %11, label %13

11:                                               ; preds = %8
  %12 = load ptr, ptr %5, align 8, !tbaa !19
  store ptr %12, ptr %3, align 8
  br label %17

13:                                               ; preds = %8, %2
  %14 = load ptr, ptr %4, align 8, !tbaa !74
  %15 = getelementptr inbounds nuw %"struct.Yosys::RTLIL::Module", ptr %14, i32 0, i32 11
  %16 = call noundef ptr @_ZN5Yosys6log_idERKNS_5RTLIL8IdStringE(ptr noundef nonnull align 4 dereferenceable(4) %15)
  store ptr %16, ptr %3, align 8
  br label %17

17:                                               ; preds = %13, %11
  %18 = load ptr, ptr %3, align 8
  ret ptr %18
}

; Function Attrs: mustprogress uwtable
define internal void @_ZN12_GLOBAL__N_112TraceMonitor14notify_connectEPN5Yosys5RTLIL4CellERKNS2_8IdStringERKNS2_7SigSpecESA_(ptr noundef nonnull align 8 dereferenceable(12) %0, ptr noundef %1, ptr noundef nonnull align 4 dereferenceable(4) %2, ptr noundef nonnull align 8 dereferenceable(56) %3, ptr noundef nonnull align 8 dereferenceable(56) %4) unnamed_addr #4 align 2 {
  %6 = alloca ptr, align 8
  %7 = alloca ptr, align 8
  %8 = alloca ptr, align 8
  %9 = alloca ptr, align 8
  %10 = alloca ptr, align 8
  store ptr %0, ptr %6, align 8, !tbaa !53
  store ptr %1, ptr %7, align 8, !tbaa !76
  store ptr %2, ptr %8, align 8, !tbaa !78
  store ptr %3, ptr %9, align 8, !tbaa !80
  store ptr %4, ptr %10, align 8, !tbaa !80
  %11 = load ptr, ptr %7, align 8, !tbaa !76
  %12 = getelementptr inbounds nuw %"struct.Yosys::RTLIL::Cell", ptr %11, i32 0, i32 2
  %13 = load ptr, ptr %12, align 8, !tbaa !82
  %14 = call noundef ptr @_ZN5YosysL6log_idINS_5RTLIL6ModuleEEEPKcPT_S4_(ptr noundef %13, ptr noundef null)
  %15 = load ptr, ptr %7, align 8, !tbaa !76
  %16 = call noundef ptr @_ZN5YosysL6log_idINS_5RTLIL4CellEEEPKcPT_S4_(ptr noundef %15, ptr noundef null)
  %17 = load ptr, ptr %8, align 8, !tbaa !78
  %18 = call noundef ptr @_ZN5Yosys6log_idERKNS_5RTLIL8IdStringE(ptr noundef nonnull align 4 dereferenceable(4) %17)
  %19 = load ptr, ptr %10, align 8, !tbaa !80
  %20 = call noundef ptr @_ZN5Yosys10log_signalERKNS_5RTLIL7SigSpecEb(ptr noundef nonnull align 8 dereferenceable(56) %19, i1 noundef zeroext true)
  %21 = load ptr, ptr %9, align 8, !tbaa !80
  %22 = call noundef ptr @_ZN5Yosys10log_signalERKNS_5RTLIL7SigSpecEb(ptr noundef nonnull align 8 dereferenceable(56) %21, i1 noundef zeroext true)
  call void (ptr, ...) @_ZN5Yosys3logEPKcz(ptr noundef @.str.11, ptr noundef %14, ptr noundef %16, ptr noundef %18, ptr noundef %20, ptr noundef %22)
  ret void
}