; Function Attrs: mustprogress uwtable
define internal void @_ZN12_GLOBAL__N_112TraceMonitor14notify_connectEPN5Yosys5RTLIL4CellERKNS2_8IdStringERKNS2_7SigSpecESA_(ptr nonnull readnone align 8 captures(none) %0, ptr noundef %1, ptr noundef nonnull align 4 dereferenceable(4) %2, ptr noundef nonnull align 8 dereferenceable(56) %3, ptr noundef nonnull align 8 dereferenceable(56) %4) unnamed_addr #5 align 2 {
  %6 = getelementptr inbounds nuw i8, ptr %1, i64 64
  %7 = load ptr, ptr %6, align 8, !tbaa !49
  %8 = getelementptr inbounds nuw i8, ptr %7, i64 304
  %9 = tail call noundef ptr @_ZN5Yosys6log_idERKNS_5RTLIL8IdStringE(ptr noundef nonnull align 4 dereferenceable(4) %8)
  %10 = getelementptr inbounds nuw i8, ptr %1, i64 72
  %11 = tail call noundef ptr @_ZN5Yosys6log_idERKNS_5RTLIL8IdStringE(ptr noundef nonnull align 4 dereferenceable(4) %10)
  %12 = tail call noundef ptr @_ZN5Yosys6log_idERKNS_5RTLIL8IdStringE(ptr noundef nonnull align 4 dereferenceable(4) %2)
  %13 = tail call noundef ptr @_ZN5Yosys10log_signalERKNS_5RTLIL7SigSpecEb(ptr noundef nonnull align 8 dereferenceable(56) %4, i1 noundef zeroext true)
  %14 = tail call noundef ptr @_ZN5Yosys10log_signalERKNS_5RTLIL7SigSpecEb(ptr noundef nonnull align 8 dereferenceable(56) %3, i1 noundef zeroext true)
  tail call void (ptr, ...) @_ZN5Yosys3logEPKcz(ptr noundef nonnull @.str.11, ptr noundef %9, ptr noundef %11, ptr noundef %12, ptr noundef %13, ptr noundef %14)
  ret void
}